; Function Attrs: mustprogress uwtable
define void @_ZNK5faiss17ResidualQuantizer11refine_beamEmmPKfiPiPfS4_(ptr noundef nonnull align 8 dereferenceable(432) %0, i64 noundef %1, i64 noundef %2, ptr noundef %3, i32 noundef %4, ptr noundef %5, ptr noundef %6, ptr noundef %7) local_unnamed_addr #0 align 2 personality ptr @__gxx_personality_v0 {
  %9 = alloca %"struct.faiss::rq_encode_steps::RefineBeamMemoryPool", align 8
  call void @llvm.memset.p0.i64(ptr noundef nonnull align 8 dereferenceable(120) %9, i8 0, i64 120, i1 false)
  invoke void @_ZN5faiss15rq_encode_steps14refine_beam_mpERKNS_17ResidualQuantizerEmmPKfiPiPfS7_RNS0_20RefineBeamMemoryPoolE(ptr noundef nonnull align 8 dereferenceable(432) %0, i64 noundef %1, i64 noundef %2, ptr noundef %3, i32 noundef %4, ptr noundef %5, ptr noundef %6, ptr noundef %7, ptr noundef nonnull align 8 dereferenceable(120) %9)
          to label %10 unwind label %25

10:                                               ; preds = %8
  %11 = getelementptr inbounds i8, ptr %9, i64 96
  %12 = load ptr, ptr %11, align 8
  %.not.i.i.i.i = icmp eq ptr %12, null
  br i1 %.not.i.i.i.i, label %_ZNSt6vectorIfSaIfEED2Ev.exit.i, label %13

13:                                               ; preds = %10
  call void @_ZdlPv(ptr noundef nonnull %12) #15
  br label %_ZNSt6vectorIfSaIfEED2Ev.exit.i

_ZNSt6vectorIfSaIfEED2Ev.exit.i:                  ; preds = %13, %10
  %14 = getelementptr inbounds i8, ptr %9, i64 72
  %15 = load ptr, ptr %14, align 8
  %.not.i.i.i1.i = icmp eq ptr %15, null
  br i1 %.not.i.i.i1.i, label %_ZNSt6vectorIiSaIiEED2Ev.exit.i, label %16

16:                                               ; preds = %_ZNSt6vectorIfSaIfEED2Ev.exit.i
  call void @_ZdlPv(ptr noundef nonnull %15) #15
  br label %_ZNSt6vectorIiSaIiEED2Ev.exit.i

_ZNSt6vectorIiSaIiEED2Ev.exit.i:                  ; preds = %16, %_ZNSt6vectorIfSaIfEED2Ev.exit.i
  %17 = getelementptr inbounds i8, ptr %9, i64 48
  %18 = load ptr, ptr %17, align 8
  %.not.i.i.i2.i = icmp eq ptr %18, null
  br i1 %.not.i.i.i2.i, label %_ZNSt6vectorIfSaIfEED2Ev.exit3.i, label %19

19:                                               ; preds = %_ZNSt6vectorIiSaIiEED2Ev.exit.i
  call void @_ZdlPv(ptr noundef nonnull %18) #15
  br label %_ZNSt6vectorIfSaIfEED2Ev.exit3.i

_ZNSt6vectorIfSaIfEED2Ev.exit3.i:                 ; preds = %19, %_ZNSt6vectorIiSaIiEED2Ev.exit.i
  %20 = getelementptr inbounds i8, ptr %9, i64 24
  %21 = load ptr, ptr %20, align 8
  %.not.i.i.i4.i = icmp eq ptr %21, null
  br i1 %.not.i.i.i4.i, label %_ZNSt6vectorIfSaIfEED2Ev.exit5.i, label %22

22:                                               ; preds = %_ZNSt6vectorIfSaIfEED2Ev.exit3.i
  call void @_ZdlPv(ptr noundef nonnull %21) #15
  br label %_ZNSt6vectorIfSaIfEED2Ev.exit5.i

_ZNSt6vectorIfSaIfEED2Ev.exit5.i:                 ; preds = %22, %_ZNSt6vectorIfSaIfEED2Ev.exit3.i
  %23 = load ptr, ptr %9, align 8
  %.not.i.i.i6.i = icmp eq ptr %23, null
  br i1 %.not.i.i.i6.i, label %_ZN5faiss15rq_encode_steps20RefineBeamMemoryPoolD2Ev.exit, label %24

24:                                               ; preds = %_ZNSt6vectorIfSaIfEED2Ev.exit5.i
  call void @_ZdlPv(ptr noundef nonnull %23) #15
  br label %_ZN5faiss15rq_encode_steps20RefineBeamMemoryPoolD2Ev.exit

_ZN5faiss15rq_encode_steps20RefineBeamMemoryPoolD2Ev.exit: ; preds = %_ZNSt6vectorIfSaIfEED2Ev.exit5.i, %24
  ret void

25:                                               ; preds = %8
  %26 = landingpad { ptr, i32 }
          cleanup
  call void @_ZN5faiss15rq_encode_steps20RefineBeamMemoryPoolD2Ev(ptr noundef nonnull align 8 dereferenceable(120) %9) #16
  resume { ptr, i32 } %26
}